target datalayout = "e-m:e-p270:32:32-p271:32:32-p272:64:64-i64:64-i128:128-f80:128-n8:16:32:64-S128"
target triple = "x86_64-pc-linux-gnu"

%struct._packet_info = type { ptr, ptr, i32, i32, %struct.nstime_t, %struct.nstime_t, %struct.nstime_t, i8, ptr, ptr, ptr, ptr, %struct._address, %struct._address, %struct._address, %struct._address, %struct._address, %struct._address, i32, ptr, i8, [3 x i8], %struct.anon, i32, i32, i32, i32, ptr, i8, ptr, ptr, i16, i16, i32, i32, i16, i32, i32, ptr, ptr, ptr, i8, i8, i16, i16, i16, i32, i16, i16, ptr, ptr, ptr, ptr, ptr, i32, i32 }
%struct.nstime_t = type { i64, i32 }
%struct._address = type { i32, i32, ptr, ptr }
%struct.anon = type { i8, [3 x i8] }

@hf_aim_buddyname_len = internal global i32 0, align 4
@hf_aim_buddyname = internal global i32 0, align 4
@hf_aim_infotype = internal global i32 0, align 4
@ett_aim_buddyname = internal global i32 0, align 4
@.str.624 = private unnamed_addr constant [10 x i8] c"Buddy: %s\00", align 1
@.str.916 = private unnamed_addr constant [14 x i8] c" Username: %s\00", align 1

; Function Attrs: null_pointer_is_valid sspstrong uwtable
define internal i32 @dissect_aim_buddyname(ptr noundef %0, ptr noundef %1, i32 noundef %2, ptr noundef %3) #0 {
  %5 = alloca ptr, align 8
  %6 = alloca ptr, align 8
  %7 = alloca i32, align 4
  %8 = alloca ptr, align 8
  %9 = alloca i8, align 1
  %10 = alloca ptr, align 8
  store ptr %0, ptr %5, align 8
  store ptr %1, ptr %6, align 8
  store i32 %2, ptr %7, align 4
  store ptr %3, ptr %8, align 8
  call void @llvm.lifetime.start.p0(i64 1, ptr %9) #13
  store i8 0, ptr %9, align 1
  call void @llvm.lifetime.start.p0(i64 8, ptr %10) #13
  %11 = load ptr, ptr %5, align 8
  %12 = load i32, ptr %7, align 4
  %13 = call zeroext i8 @tvb_get_uint8(ptr noundef %11, i32 noundef %12)
  store i8 %13, ptr %9, align 1
  %14 = load i32, ptr %7, align 4
  %15 = add i32 %14, 1
  store i32 %15, ptr %7, align 4
  %16 = load ptr, ptr %8, align 8
  %17 = icmp ne ptr %16, null
  br i1 %17, label %18, label %49

18:                                               ; preds = %4
  %19 = load ptr, ptr %8, align 8
  %20 = load ptr, ptr %5, align 8
  %21 = load i32, ptr %7, align 4
  %22 = sub i32 %21, 1
  %23 = load i8, ptr %9, align 1
  %24 = zext i8 %23 to i32
  %25 = add i32 1, %24
  %26 = load i32, ptr @ett_aim_buddyname, align 4
  %27 = load ptr, ptr %6, align 8
  %28 = getelementptr inbounds nuw %struct._packet_info, ptr %27, i32 0, i32 51
  %29 = load ptr, ptr %28, align 8
  %30 = load ptr, ptr %5, align 8
  %31 = load i32, ptr %7, align 4
  %32 = load i8, ptr %9, align 1
  %33 = zext i8 %32 to i32
  %34 = call ptr @tvb_format_text(ptr noundef %29, ptr noundef %30, i32 noundef %31, i32 noundef %33)
  %35 = call ptr (ptr, ptr, i32, i32, i32, ptr, ptr, ...) @proto_tree_add_subtree_format(ptr noundef %19, ptr noundef %20, i32 noundef %22, i32 noundef %25, i32 noundef %26, ptr noundef null, ptr noundef @.str.624, ptr noundef %34)
  store ptr %35, ptr %10, align 8
  %36 = load ptr, ptr %10, align 8
  %37 = load i32, ptr @hf_aim_buddyname_len, align 4
  %38 = load ptr, ptr %5, align 8
  %39 = load i32, ptr %7, align 4
  %40 = sub i32 %39, 1
  %41 = call ptr @proto_tree_add_item(ptr noundef %36, i32 noundef %37, ptr noundef %38, i32 noundef %40, i32 noundef 1, i32 noundef 0)
  %42 = load ptr, ptr %10, align 8
  %43 = load i32, ptr @hf_aim_buddyname, align 4
  %44 = load ptr, ptr %5, align 8
  %45 = load i32, ptr %7, align 4
  %46 = load i8, ptr %9, align 1
  %47 = zext i8 %46 to i32
  %48 = call ptr @proto_tree_add_item(ptr noundef %42, i32 noundef %43, ptr noundef %44, i32 noundef %45, i32 noundef %47, i32 noundef 2)
  br label %49

49:                                               ; preds = %18, %4
  %50 = load i32, ptr %7, align 4
  %51 = load i8, ptr %9, align 1
  %52 = zext i8 %51 to i32
  %53 = add i32 %50, %52
  call void @llvm.lifetime.end.p0(i64 8, ptr %10) #13
  call void @llvm.lifetime.end.p0(i64 1, ptr %9) #13
  ret i32 %53
}

; Function Attrs: null_pointer_is_valid sspstrong uwtable
define internal i32 @aim_get_buddyname(ptr noundef %0, ptr noundef %1, ptr noundef %2, i32 noundef %3) #0 {
  %5 = alloca ptr, align 8
  %6 = alloca ptr, align 8
  %7 = alloca ptr, align 8
  %8 = alloca i32, align 4
  %9 = alloca i8, align 1
  store ptr %0, ptr %5, align 8
  store ptr %1, ptr %6, align 8
  store ptr %2, ptr %7, align 8
  store i32 %3, ptr %8, align 4
  call void @llvm.lifetime.start.p0(i64 1, ptr %9) #13
  %10 = load ptr, ptr %7, align 8
  %11 = load i32, ptr %8, align 4
  %12 = call zeroext i8 @tvb_get_uint8(ptr noundef %10, i32 noundef %11)
  store i8 %12, ptr %9, align 1
  %13 = load ptr, ptr %5, align 8
  %14 = load ptr, ptr %7, align 8
  %15 = load i32, ptr %8, align 4
  %16 = add i32 %15, 1
  %17 = load i8, ptr %9, align 1
  %18 = zext i8 %17 to i32
  %19 = call ptr @tvb_get_string_enc(ptr noundef %13, ptr noundef %14, i32 noundef %16, i32 noundef %18, i32 noundef 2)
  %20 = load ptr, ptr %6, align 8
  store ptr %19, ptr %20, align 8
  %21 = load i8, ptr %9, align 1
  %22 = zext i8 %21 to i32
  call void @llvm.lifetime.end.p0(i64 1, ptr %9) #13
  ret i32 %22
}

; Function Attrs: null_pointer_is_valid sspstrong uwtable
define internal i32 @dissect_aim_snac_signon_signon(ptr noundef %0, ptr noundef %1, ptr noundef %2) #0 {
  %4 = alloca ptr, align 8
  %5 = alloca ptr, align 8
  %6 = alloca ptr, align 8
  %7 = alloca i8, align 1
  %8 = alloca i32, align 4
  %9 = alloca ptr, align 8
  store ptr %0, ptr %4, align 8
  store ptr %1, ptr %5, align 8
  store ptr %2, ptr %6, align 8
  call void @llvm.lifetime.start.p0(i64 1, ptr %7) #13
  store i8 0, ptr %7, align 1
  call void @llvm.lifetime.start.p0(i64 4, ptr %8) #13
  store i32 0, ptr %8, align 4
  call void @llvm.lifetime.start.p0(i64 8, ptr %9) #13
  %10 = load ptr, ptr %6, align 8
  %11 = load i32, ptr @hf_aim_infotype, align 4
  %12 = load ptr, ptr %4, align 8
  %13 = load i32, ptr %8, align 4
  %14 = call ptr @proto_tree_add_item(ptr noundef %10, i32 noundef %11, ptr noundef %12, i32 noundef %13, i32 noundef 2, i32 noundef 0)
  %15 = load i32, ptr %8, align 4
  %16 = add i32 %15, 2
  store i32 %16, ptr %8, align 4
  %17 = load i32, ptr %8, align 4
  %18 = add i32 %17, 1
  store i32 %18, ptr %8, align 4
  %19 = load ptr, ptr %5, align 8
  %20 = getelementptr inbounds nuw %struct._packet_info, ptr %19, i32 0, i32 51
  %21 = load ptr, ptr %20, align 8
  %22 = load ptr, ptr %4, align 8
  %23 = load i32, ptr %8, align 4
  %24 = call i32 @aim_get_buddyname(ptr noundef %21, ptr noundef %9, ptr noundef %22, i32 noundef %23)
  %25 = trunc i32 %24 to i8
  store i8 %25, ptr %7, align 1
  %26 = load ptr, ptr %5, align 8
  %27 = getelementptr inbounds nuw %struct._packet_info, ptr %26, i32 0, i32 1
  %28 = load ptr, ptr %27, align 8
  %29 = load ptr, ptr %5, align 8
  %30 = getelementptr inbounds nuw %struct._packet_info, ptr %29, i32 0, i32 51
  %31 = load ptr, ptr %30, align 8
  %32 = load ptr, ptr %9, align 8
  %33 = load i8, ptr %7, align 1
  %34 = zext i8 %33 to i64
  %35 = call ptr @format_text(ptr noundef %31, ptr noundef %32, i64 noundef %34)
  call void (ptr, i32, ptr, ...) @col_append_fstr(ptr noundef %28, i32 noundef 25, ptr noundef @.str.916, ptr noundef %35)
  %36 = load ptr, ptr %6, align 8
  %37 = icmp ne ptr %36, null
  br i1 %37, label %38, label %46

38:                                               ; preds = %3
  %39 = load ptr, ptr %4, align 8
  %40 = load ptr, ptr %5, align 8
  %41 = load i32, ptr %8, align 4
  %42 = load ptr, ptr %6, align 8
  %43 = call i32 @dissect_aim_buddyname(ptr noundef %39, ptr noundef %40, i32 noundef %41, ptr noundef %42)
  %44 = load i32, ptr %8, align 4
  %45 = add i32 %44, %43
  store i32 %45, ptr %8, align 4
  br label %46

46:                                               ; preds = %38, %3
  %47 = load i32, ptr %8, align 4
  call void @llvm.lifetime.end.p0(i64 8, ptr %9) #13
  call void @llvm.lifetime.end.p0(i64 4, ptr %8) #13
  call void @llvm.lifetime.end.p0(i64 1, ptr %7) #13
  ret i32 %47
}