; Function Attrs: null_pointer_is_valid sspstrong uwtable
define internal range(i32 3, 263) i32 @dissect_aim_snac_signon_signon(ptr noundef %0, ptr noundef readonly captures(none) %1, ptr noundef %2) #0 {
  %4 = load i32, ptr @hf_aim_infotype, align 4
  %5 = tail call ptr @proto_tree_add_item(ptr noundef %2, i32 noundef %4, ptr noundef %0, i32 noundef 0, i32 noundef 2, i32 noundef 0)
  %6 = getelementptr inbounds nuw i8, ptr %1, i64 408
  %7 = load ptr, ptr %6, align 8
  %8 = tail call zeroext i8 @tvb_get_uint8(ptr noundef %0, i32 noundef 3)
  %9 = zext i8 %8 to i32
  %10 = tail call ptr @tvb_get_string_enc(ptr noundef %7, ptr noundef %0, i32 noundef 4, i32 noundef %9, i32 noundef 2)
  %11 = zext i8 %8 to i64
  %12 = getelementptr inbounds nuw i8, ptr %1, i64 8
  %13 = load ptr, ptr %12, align 8
  %14 = load ptr, ptr %6, align 8
  %15 = tail call ptr @format_text(ptr noundef %14, ptr noundef %10, i64 noundef %11)
  tail call void (ptr, i32, ptr, ...) @col_append_fstr(ptr noundef %13, i32 noundef 25, ptr noundef nonnull @.str.916, ptr noundef %15)
  %.not = icmp eq ptr %2, null
  br i1 %.not, label %27, label %dissect_aim_buddyname.exit

dissect_aim_buddyname.exit:                       ; preds = %3
  %16 = tail call zeroext i8 @tvb_get_uint8(ptr noundef %0, i32 noundef 3)
  %.pre.i = zext i8 %16 to i32
  %17 = add nuw nsw i32 %.pre.i, 1
  %18 = load i32, ptr @ett_aim_buddyname, align 4
  %19 = load ptr, ptr %6, align 8
  %20 = tail call ptr @tvb_format_text(ptr noundef %19, ptr noundef %0, i32 noundef 4, i32 noundef %.pre.i)
  %21 = tail call ptr (ptr, ptr, i32, i32, i32, ptr, ptr, ...) @proto_tree_add_subtree_format(ptr noundef nonnull %2, ptr noundef %0, i32 noundef 3, i32 noundef %17, i32 noundef %18, ptr noundef null, ptr noundef nonnull @.str.624, ptr noundef %20)
  %22 = load i32, ptr @hf_aim_buddyname_len, align 4
  %23 = tail call ptr @proto_tree_add_item(ptr noundef %21, i32 noundef %22, ptr noundef %0, i32 noundef 3, i32 noundef 1, i32 noundef 0)
  %24 = load i32, ptr @hf_aim_buddyname, align 4
  %25 = tail call ptr @proto_tree_add_item(ptr noundef %21, i32 noundef %24, ptr noundef %0, i32 noundef 4, i32 noundef %.pre.i, i32 noundef 2)
  %26 = add nuw nsw i32 %.pre.i, 7
  br label %27

27:                                               ; preds = %dissect_aim_buddyname.exit, %3
  %.0 = phi i32 [ %26, %dissect_aim_buddyname.exit ], [ 3, %3 ]
  ret i32 %.0
}